; Function Attrs: nofree nounwind uwtable
define internal void @clar_print_onabort(ptr readnone captures(none) %0, ...) unnamed_addr #18 {
  %2 = alloca [1 x %struct.__va_list_tag], align 16
  call void @llvm.lifetime.start.p0(i64 24, ptr nonnull %2) #31
  call void @llvm.va_start.p0(ptr nonnull %2)
  %3 = load i32, ptr getelementptr inbounds nuw (i8, ptr @_clar, i64 40), align 8, !tbaa !35
  switch i32 %3, label %13 [
    i32 0, label %4
    i32 1, label %7
  ]

4:                                                ; preds = %1
  %5 = load ptr, ptr @stderr, align 8, !tbaa !79
  %6 = call i32 @vfprintf(ptr noundef %5, ptr noundef nonnull readonly @.str.139, ptr noundef nonnull %2) #35
  br label %clar_print_onabortv.exit

7:                                                ; preds = %1
  %8 = call i32 (ptr, ...) @printf(ptr noundef nonnull dereferenceable(1) @.str.41)
  %9 = load ptr, ptr @stdout, align 8, !tbaa !79, !noalias !112
  %10 = call i32 @vfprintf(ptr noundef %9, ptr noundef nonnull readonly @.str.139, ptr noundef nonnull %2) #31
  %11 = load ptr, ptr @stdout, align 8, !tbaa !79
  %12 = call i32 @fflush(ptr noundef %11)
  br label %clar_print_onabortv.exit

13:                                               ; preds = %1
  call void @abort() #30
  unreachable

clar_print_onabortv.exit:                         ; preds = %4, %7
  call void @llvm.va_end.p0(ptr nonnull %2)
  call void @llvm.lifetime.end.p0(i64 24, ptr nonnull %2) #31
  ret void
}